target datalayout = "e-m:e-p270:32:32-p271:32:32-p272:64:64-i64:64-i128:128-f80:128-n8:16:32:64-S128"
target triple = "x86_64-pc-linux-gnu"

@.str.63 = private unnamed_addr constant [3 x i8] c"%s\00", align 1

; Function Attrs: null_pointer_is_valid sspstrong uwtable
define internal void @glib_log_handler(ptr noundef %0, i32 noundef %1, ptr noundef %2, ptr noundef %3) #1 {
  %5 = alloca ptr, align 8
  %6 = alloca i32, align 4
  %7 = alloca ptr, align 8
  %8 = alloca ptr, align 8
  %9 = alloca i32, align 4
  store ptr %0, ptr %5, align 8
  store i32 %1, ptr %6, align 4
  store ptr %2, ptr %7, align 8
  store ptr %3, ptr %8, align 8
  call void @llvm.lifetime.start.p0(i64 4, ptr %9) #19
  %10 = load i32, ptr %6, align 4
  %11 = and i32 %10, 4
  %12 = icmp ne i32 %11, 0
  br i1 %12, label %13, label %14

13:                                               ; preds = %4
  store i32 7, ptr %9, align 4
  br label %45

14:                                               ; preds = %4
  %15 = load i32, ptr %6, align 4
  %16 = and i32 %15, 8
  %17 = icmp ne i32 %16, 0
  br i1 %17, label %18, label %19

18:                                               ; preds = %14
  store i32 6, ptr %9, align 4
  br label %44

19:                                               ; preds = %14
  %20 = load i32, ptr %6, align 4
  %21 = and i32 %20, 16
  %22 = icmp ne i32 %21, 0
  br i1 %22, label %23, label %24

23:                                               ; preds = %19
  store i32 5, ptr %9, align 4
  br label %43

24:                                               ; preds = %19
  %25 = load i32, ptr %6, align 4
  %26 = and i32 %25, 32
  %27 = icmp ne i32 %26, 0
  br i1 %27, label %28, label %29

28:                                               ; preds = %24
  store i32 4, ptr %9, align 4
  br label %42

29:                                               ; preds = %24
  %30 = load i32, ptr %6, align 4
  %31 = and i32 %30, 64
  %32 = icmp ne i32 %31, 0
  br i1 %32, label %33, label %34

33:                                               ; preds = %29
  store i32 3, ptr %9, align 4
  br label %41

34:                                               ; preds = %29
  %35 = load i32, ptr %6, align 4
  %36 = and i32 %35, 128
  %37 = icmp ne i32 %36, 0
  br i1 %37, label %38, label %39

38:                                               ; preds = %34
  store i32 2, ptr %9, align 4
  br label %40

39:                                               ; preds = %34
  store i32 0, ptr %9, align 4
  br label %40

40:                                               ; preds = %39, %38
  br label %41

41:                                               ; preds = %40, %33
  br label %42

42:                                               ; preds = %41, %28
  br label %43

43:                                               ; preds = %42, %23
  br label %44

44:                                               ; preds = %43, %18
  br label %45

45:                                               ; preds = %44, %13
  %46 = load ptr, ptr %5, align 8
  %47 = load i32, ptr %9, align 4
  %48 = load ptr, ptr %7, align 8
  call void (ptr, i32, ptr, ...) @ws_log(ptr noundef %46, i32 noundef %47, ptr noundef @.str.63, ptr noundef %48)
  call void @llvm.lifetime.end.p0(i64 4, ptr %9) #19
  ret void
}