; Function Attrs: null_pointer_is_valid sspstrong uwtable
define internal void @glib_log_handler(ptr noundef %0, i32 noundef %1, ptr noundef %2, ptr readnone captures(none) %3) #1 {
  %5 = and i32 %1, 4
  %.not = icmp eq i32 %5, 0
  br i1 %.not, label %6, label %16

6:                                                ; preds = %4
  %7 = and i32 %1, 8
  %.not8 = icmp eq i32 %7, 0
  br i1 %.not8, label %8, label %16

8:                                                ; preds = %6
  %9 = and i32 %1, 16
  %.not9 = icmp eq i32 %9, 0
  br i1 %.not9, label %10, label %16

10:                                               ; preds = %8
  %11 = and i32 %1, 32
  %.not10 = icmp eq i32 %11, 0
  br i1 %.not10, label %12, label %16

12:                                               ; preds = %10
  %13 = and i32 %1, 64
  %.not11 = icmp eq i32 %13, 0
  br i1 %.not11, label %14, label %16

14:                                               ; preds = %12
  %15 = lshr i32 %1, 6
  %. = and i32 %15, 2
  br label %16

16:                                               ; preds = %14, %12, %10, %8, %6, %4
  %.0 = phi i32 [ 7, %4 ], [ 6, %6 ], [ 5, %8 ], [ 4, %10 ], [ 3, %12 ], [ %., %14 ]
  tail call void (ptr, i32, ptr, ...) @ws_log(ptr noundef %0, i32 noundef %.0, ptr noundef nonnull @.str.63, ptr noundef %2)
  ret void
}